target datalayout = "e-m:e-p270:32:32-p271:32:32-p272:64:64-i64:64-i128:128-f80:128-n8:16:32:64-S128"
target triple = "x86_64-unknown-linux-gnu"

%struct.QEnumLookup = type { ptr, ptr, i32 }
%struct.BlockdevOptionsIscsi = type { i32, ptr, ptr, i8, i64, ptr, ptr, ptr, i8, i32, i8, i64 }

@.str.204 = private unnamed_addr constant [7 x i8] c"target\00", align 1
@.str.310 = private unnamed_addr constant [5 x i8] c"user\00", align 1
@IscsiTransport_lookup = external constant %struct.QEnumLookup, align 8
@IscsiHeaderDigest_lookup = external constant %struct.QEnumLookup, align 8
@.str.344 = private unnamed_addr constant [10 x i8] c"transport\00", align 1
@.str.345 = private unnamed_addr constant [7 x i8] c"portal\00", align 1
@.str.346 = private unnamed_addr constant [4 x i8] c"lun\00", align 1
@.str.347 = private unnamed_addr constant [16 x i8] c"password-secret\00", align 1
@.str.348 = private unnamed_addr constant [15 x i8] c"initiator-name\00", align 1
@.str.349 = private unnamed_addr constant [14 x i8] c"header-digest\00", align 1
@.str.350 = private unnamed_addr constant [8 x i8] c"timeout\00", align 1

; Function Attrs: nounwind sspstrong uwtable
define dso_local zeroext i1 @visit_type_IscsiHeaderDigest(ptr noundef %v, ptr noundef %name, ptr noundef %obj, ptr noundef %errp) #0 {
entry:
  %v.addr = alloca ptr, align 8
  %name.addr = alloca ptr, align 8
  %obj.addr = alloca ptr, align 8
  %errp.addr = alloca ptr, align 8
  %value = alloca i32, align 4
  %ok = alloca i8, align 1
  store ptr %v, ptr %v.addr, align 8
  store ptr %name, ptr %name.addr, align 8
  store ptr %obj, ptr %obj.addr, align 8
  store ptr %errp, ptr %errp.addr, align 8
  %0 = load ptr, ptr %obj.addr, align 8
  %1 = load i32, ptr %0, align 4
  store i32 %1, ptr %value, align 4
  %2 = load ptr, ptr %v.addr, align 8
  %3 = load ptr, ptr %name.addr, align 8
  %4 = load ptr, ptr %errp.addr, align 8
  %call = call zeroext i1 @visit_type_enum(ptr noundef %2, ptr noundef %3, ptr noundef %value, ptr noundef @IscsiHeaderDigest_lookup, ptr noundef %4)
  %frombool = zext i1 %call to i8
  store i8 %frombool, ptr %ok, align 1
  %5 = load i32, ptr %value, align 4
  %6 = load ptr, ptr %obj.addr, align 8
  store i32 %5, ptr %6, align 4
  %7 = load i8, ptr %ok, align 1
  %tobool = trunc i8 %7 to i1
  ret i1 %tobool
}

; Function Attrs: nounwind sspstrong uwtable
define dso_local zeroext i1 @visit_type_IscsiTransport(ptr noundef %v, ptr noundef %name, ptr noundef %obj, ptr noundef %errp) #0 {
entry:
  %v.addr = alloca ptr, align 8
  %name.addr = alloca ptr, align 8
  %obj.addr = alloca ptr, align 8
  %errp.addr = alloca ptr, align 8
  %value = alloca i32, align 4
  %ok = alloca i8, align 1
  store ptr %v, ptr %v.addr, align 8
  store ptr %name, ptr %name.addr, align 8
  store ptr %obj, ptr %obj.addr, align 8
  store ptr %errp, ptr %errp.addr, align 8
  %0 = load ptr, ptr %obj.addr, align 8
  %1 = load i32, ptr %0, align 4
  store i32 %1, ptr %value, align 4
  %2 = load ptr, ptr %v.addr, align 8
  %3 = load ptr, ptr %name.addr, align 8
  %4 = load ptr, ptr %errp.addr, align 8
  %call = call zeroext i1 @visit_type_enum(ptr noundef %2, ptr noundef %3, ptr noundef %value, ptr noundef @IscsiTransport_lookup, ptr noundef %4)
  %frombool = zext i1 %call to i8
  store i8 %frombool, ptr %ok, align 1
  %5 = load i32, ptr %value, align 4
  %6 = load ptr, ptr %obj.addr, align 8
  store i32 %5, ptr %6, align 4
  %7 = load i8, ptr %ok, align 1
  %tobool = trunc i8 %7 to i1
  ret i1 %tobool
}

; Function Attrs: nounwind sspstrong uwtable
define dso_local zeroext i1 @visit_type_BlockdevOptionsIscsi_members(ptr noundef %v, ptr noundef %obj, ptr noundef %errp) #0 {
entry:
  %retval = alloca i1, align 1
  %v.addr = alloca ptr, align 8
  %obj.addr = alloca ptr, align 8
  %errp.addr = alloca ptr, align 8
  %has_user = alloca i8, align 1
  %has_password_secret = alloca i8, align 1
  %has_initiator_name = alloca i8, align 1
  store ptr %v, ptr %v.addr, align 8
  store ptr %obj, ptr %obj.addr, align 8
  store ptr %errp, ptr %errp.addr, align 8
  %0 = load ptr, ptr %obj.addr, align 8
  %user = getelementptr inbounds %struct.BlockdevOptionsIscsi, ptr %0, i32 0, i32 5
  %1 = load ptr, ptr %user, align 8
  %tobool = icmp ne ptr %1, null
  %lnot = xor i1 %tobool, true
  %lnot1 = xor i1 %lnot, true
  %frombool = zext i1 %lnot1 to i8
  store i8 %frombool, ptr %has_user, align 1
  %2 = load ptr, ptr %obj.addr, align 8
  %password_secret = getelementptr inbounds %struct.BlockdevOptionsIscsi, ptr %2, i32 0, i32 6
  %3 = load ptr, ptr %password_secret, align 8
  %tobool2 = icmp ne ptr %3, null
  %lnot3 = xor i1 %tobool2, true
  %lnot4 = xor i1 %lnot3, true
  %frombool5 = zext i1 %lnot4 to i8
  store i8 %frombool5, ptr %has_password_secret, align 1
  %4 = load ptr, ptr %obj.addr, align 8
  %initiator_name = getelementptr inbounds %struct.BlockdevOptionsIscsi, ptr %4, i32 0, i32 7
  %5 = load ptr, ptr %initiator_name, align 8
  %tobool6 = icmp ne ptr %5, null
  %lnot7 = xor i1 %tobool6, true
  %lnot8 = xor i1 %lnot7, true
  %frombool9 = zext i1 %lnot8 to i8
  store i8 %frombool9, ptr %has_initiator_name, align 1
  %6 = load ptr, ptr %v.addr, align 8
  %7 = load ptr, ptr %obj.addr, align 8
  %transport = getelementptr inbounds %struct.BlockdevOptionsIscsi, ptr %7, i32 0, i32 0
  %8 = load ptr, ptr %errp.addr, align 8
  %call = call zeroext i1 @visit_type_IscsiTransport(ptr noundef %6, ptr noundef @.str.344, ptr noundef %transport, ptr noundef %8)
  br i1 %call, label %if.end, label %if.then

if.then:                                          ; preds = %entry
  store i1 false, ptr %retval, align 1
  br label %return

if.end:                                           ; preds = %entry
  %9 = load ptr, ptr %v.addr, align 8
  %10 = load ptr, ptr %obj.addr, align 8
  %portal = getelementptr inbounds %struct.BlockdevOptionsIscsi, ptr %10, i32 0, i32 1
  %11 = load ptr, ptr %errp.addr, align 8
  %call10 = call zeroext i1 @visit_type_str(ptr noundef %9, ptr noundef @.str.345, ptr noundef %portal, ptr noundef %11)
  br i1 %call10, label %if.end12, label %if.then11

if.then11:                                        ; preds = %if.end
  store i1 false, ptr %retval, align 1
  br label %return

if.end12:                                         ; preds = %if.end
  %12 = load ptr, ptr %v.addr, align 8
  %13 = load ptr, ptr %obj.addr, align 8
  %target = getelementptr inbounds %struct.BlockdevOptionsIscsi, ptr %13, i32 0, i32 2
  %14 = load ptr, ptr %errp.addr, align 8
  %call13 = call zeroext i1 @visit_type_str(ptr noundef %12, ptr noundef @.str.204, ptr noundef %target, ptr noundef %14)
  br i1 %call13, label %if.end15, label %if.then14

if.then14:                                        ; preds = %if.end12
  store i1 false, ptr %retval, align 1
  br label %return

if.end15:                                         ; preds = %if.end12
  %15 = load ptr, ptr %v.addr, align 8
  %16 = load ptr, ptr %obj.addr, align 8
  %has_lun = getelementptr inbounds %struct.BlockdevOptionsIscsi, ptr %16, i32 0, i32 3
  %call16 = call zeroext i1 @visit_optional(ptr noundef %15, ptr noundef @.str.346, ptr noundef %has_lun)
  br i1 %call16, label %if.then17, label %if.end21

if.then17:                                        ; preds = %if.end15
  %17 = load ptr, ptr %v.addr, align 8
  %18 = load ptr, ptr %obj.addr, align 8
  %lun = getelementptr inbounds %struct.BlockdevOptionsIscsi, ptr %18, i32 0, i32 4
  %19 = load ptr, ptr %errp.addr, align 8
  %call18 = call zeroext i1 @visit_type_int(ptr noundef %17, ptr noundef @.str.346, ptr noundef %lun, ptr noundef %19)
  br i1 %call18, label %if.end20, label %if.then19

if.then19:                                        ; preds = %if.then17
  store i1 false, ptr %retval, align 1
  br label %return

if.end20:                                         ; preds = %if.then17
  br label %if.end21

if.end21:                                         ; preds = %if.end20, %if.end15
  %20 = load ptr, ptr %v.addr, align 8
  %call22 = call zeroext i1 @visit_optional(ptr noundef %20, ptr noundef @.str.310, ptr noundef %has_user)
  br i1 %call22, label %if.then23, label %if.end28

if.then23:                                        ; preds = %if.end21
  %21 = load ptr, ptr %v.addr, align 8
  %22 = load ptr, ptr %obj.addr, align 8
  %user24 = getelementptr inbounds %struct.BlockdevOptionsIscsi, ptr %22, i32 0, i32 5
  %23 = load ptr, ptr %errp.addr, align 8
  %call25 = call zeroext i1 @visit_type_str(ptr noundef %21, ptr noundef @.str.310, ptr noundef %user24, ptr noundef %23)
  br i1 %call25, label %if.end27, label %if.then26

if.then26:                                        ; preds = %if.then23
  store i1 false, ptr %retval, align 1
  br label %return

if.end27:                                         ; preds = %if.then23
  br label %if.end28

if.end28:                                         ; preds = %if.end27, %if.end21
  %24 = load ptr, ptr %v.addr, align 8
  %call29 = call zeroext i1 @visit_optional(ptr noundef %24, ptr noundef @.str.347, ptr noundef %has_password_secret)
  br i1 %call29, label %if.then30, label %if.end35

if.then30:                                        ; preds = %if.end28
  %25 = load ptr, ptr %v.addr, align 8
  %26 = load ptr, ptr %obj.addr, align 8
  %password_secret31 = getelementptr inbounds %struct.BlockdevOptionsIscsi, ptr %26, i32 0, i32 6
  %27 = load ptr, ptr %errp.addr, align 8
  %call32 = call zeroext i1 @visit_type_str(ptr noundef %25, ptr noundef @.str.347, ptr noundef %password_secret31, ptr noundef %27)
  br i1 %call32, label %if.end34, label %if.then33

if.then33:                                        ; preds = %if.then30
  store i1 false, ptr %retval, align 1
  br label %return

if.end34:                                         ; preds = %if.then30
  br label %if.end35

if.end35:                                         ; preds = %if.end34, %if.end28
  %28 = load ptr, ptr %v.addr, align 8
  %call36 = call zeroext i1 @visit_optional(ptr noundef %28, ptr noundef @.str.348, ptr noundef %has_initiator_name)
  br i1 %call36, label %if.then37, label %if.end42

if.then37:                                        ; preds = %if.end35
  %29 = load ptr, ptr %v.addr, align 8
  %30 = load ptr, ptr %obj.addr, align 8
  %initiator_name38 = getelementptr inbounds %struct.BlockdevOptionsIscsi, ptr %30, i32 0, i32 7
  %31 = load ptr, ptr %errp.addr, align 8
  %call39 = call zeroext i1 @visit_type_str(ptr noundef %29, ptr noundef @.str.348, ptr noundef %initiator_name38, ptr noundef %31)
  br i1 %call39, label %if.end41, label %if.then40

if.then40:                                        ; preds = %if.then37
  store i1 false, ptr %retval, align 1
  br label %return

if.end41:                                         ; preds = %if.then37
  br label %if.end42

if.end42:                                         ; preds = %if.end41, %if.end35
  %32 = load ptr, ptr %v.addr, align 8
  %33 = load ptr, ptr %obj.addr, align 8
  %has_header_digest = getelementptr inbounds %struct.BlockdevOptionsIscsi, ptr %33, i32 0, i32 8
  %call43 = call zeroext i1 @visit_optional(ptr noundef %32, ptr noundef @.str.349, ptr noundef %has_header_digest)
  br i1 %call43, label %if.then44, label %if.end48

if.then44:                                        ; preds = %if.end42
  %34 = load ptr, ptr %v.addr, align 8
  %35 = load ptr, ptr %obj.addr, align 8
  %header_digest = getelementptr inbounds %struct.BlockdevOptionsIscsi, ptr %35, i32 0, i32 9
  %36 = load ptr, ptr %errp.addr, align 8
  %call45 = call zeroext i1 @visit_type_IscsiHeaderDigest(ptr noundef %34, ptr noundef @.str.349, ptr noundef %header_digest, ptr noundef %36)
  br i1 %call45, label %if.end47, label %if.then46

if.then46:                                        ; preds = %if.then44
  store i1 false, ptr %retval, align 1
  br label %return

if.end47:                                         ; preds = %if.then44
  br label %if.end48

if.end48:                                         ; preds = %if.end47, %if.end42
  %37 = load ptr, ptr %v.addr, align 8
  %38 = load ptr, ptr %obj.addr, align 8
  %has_timeout = getelementptr inbounds %struct.BlockdevOptionsIscsi, ptr %38, i32 0, i32 10
  %call49 = call zeroext i1 @visit_optional(ptr noundef %37, ptr noundef @.str.350, ptr noundef %has_timeout)
  br i1 %call49, label %if.then50, label %if.end54

if.then50:                                        ; preds = %if.end48
  %39 = load ptr, ptr %v.addr, align 8
  %40 = load ptr, ptr %obj.addr, align 8
  %timeout = getelementptr inbounds %struct.BlockdevOptionsIscsi, ptr %40, i32 0, i32 11
  %41 = load ptr, ptr %errp.addr, align 8
  %call51 = call zeroext i1 @visit_type_int(ptr noundef %39, ptr noundef @.str.350, ptr noundef %timeout, ptr noundef %41)
  br i1 %call51, label %if.end53, label %if.then52

if.then52:                                        ; preds = %if.then50
  store i1 false, ptr %retval, align 1
  br label %return

if.end53:                                         ; preds = %if.then50
  br label %if.end54

if.end54:                                         ; preds = %if.end53, %if.end48
  store i1 true, ptr %retval, align 1
  br label %return

return:                                           ; preds = %if.end54, %if.then52, %if.then46, %if.then40, %if.then33, %if.then26, %if.then19, %if.then14, %if.then11, %if.then
  %42 = load i1, ptr %retval, align 1
  ret i1 %42
}