; Function Attrs: nounwind sspstrong uwtable
define dso_local noundef zeroext i1 @visit_type_BlockdevOptionsIscsi_members(ptr noundef %v, ptr noundef %obj, ptr noundef %errp) local_unnamed_addr #0 {
entry:
  %value.i37 = alloca i32, align 4
  %value.i = alloca i32, align 4
  %has_user = alloca i8, align 1
  %has_password_secret = alloca i8, align 1
  %has_initiator_name = alloca i8, align 1
  %user = getelementptr inbounds nuw i8, ptr %obj, i64 40
  %0 = load ptr, ptr %user, align 8
  %tobool = icmp ne ptr %0, null
  %frombool = zext i1 %tobool to i8
  store i8 %frombool, ptr %has_user, align 1
  %password_secret = getelementptr inbounds nuw i8, ptr %obj, i64 48
  %1 = load ptr, ptr %password_secret, align 8
  %tobool2 = icmp ne ptr %1, null
  %frombool5 = zext i1 %tobool2 to i8
  store i8 %frombool5, ptr %has_password_secret, align 1
  %initiator_name = getelementptr inbounds nuw i8, ptr %obj, i64 56
  %2 = load ptr, ptr %initiator_name, align 8
  %tobool6 = icmp ne ptr %2, null
  %frombool9 = zext i1 %tobool6 to i8
  store i8 %frombool9, ptr %has_initiator_name, align 1
  call void @llvm.lifetime.start.p0(i64 4, ptr nonnull %value.i)
  %3 = load i32, ptr %obj, align 4
  store i32 %3, ptr %value.i, align 4
  %call.i = call zeroext i1 @visit_type_enum(ptr noundef %v, ptr noundef nonnull @.str.344, ptr noundef nonnull %value.i, ptr noundef nonnull @IscsiTransport_lookup, ptr noundef %errp) #5
  %4 = load i32, ptr %value.i, align 4
  store i32 %4, ptr %obj, align 4
  call void @llvm.lifetime.end.p0(i64 4, ptr nonnull %value.i)
  br i1 %call.i, label %if.end, label %return

if.end:                                           ; preds = %entry
  %portal = getelementptr inbounds nuw i8, ptr %obj, i64 8
  %call10 = call zeroext i1 @visit_type_str(ptr noundef %v, ptr noundef nonnull @.str.345, ptr noundef nonnull %portal, ptr noundef %errp) #5
  br i1 %call10, label %if.end12, label %return

if.end12:                                         ; preds = %if.end
  %target = getelementptr inbounds nuw i8, ptr %obj, i64 16
  %call13 = call zeroext i1 @visit_type_str(ptr noundef %v, ptr noundef nonnull @.str.204, ptr noundef nonnull %target, ptr noundef %errp) #5
  br i1 %call13, label %if.end15, label %return

if.end15:                                         ; preds = %if.end12
  %has_lun = getelementptr inbounds nuw i8, ptr %obj, i64 24
  %call16 = call zeroext i1 @visit_optional(ptr noundef %v, ptr noundef nonnull @.str.346, ptr noundef nonnull %has_lun) #5
  br i1 %call16, label %if.then17, label %if.end21

if.then17:                                        ; preds = %if.end15
  %lun = getelementptr inbounds nuw i8, ptr %obj, i64 32
  %call18 = call zeroext i1 @visit_type_int(ptr noundef %v, ptr noundef nonnull @.str.346, ptr noundef nonnull %lun, ptr noundef %errp) #5
  br i1 %call18, label %if.end21, label %return

if.end21:                                         ; preds = %if.then17, %if.end15
  %call22 = call zeroext i1 @visit_optional(ptr noundef %v, ptr noundef nonnull @.str.310, ptr noundef nonnull %has_user) #5
  br i1 %call22, label %if.then23, label %if.end28

if.then23:                                        ; preds = %if.end21
  %call25 = call zeroext i1 @visit_type_str(ptr noundef %v, ptr noundef nonnull @.str.310, ptr noundef nonnull %user, ptr noundef %errp) #5
  br i1 %call25, label %if.end28, label %return

if.end28:                                         ; preds = %if.then23, %if.end21
  %call29 = call zeroext i1 @visit_optional(ptr noundef %v, ptr noundef nonnull @.str.347, ptr noundef nonnull %has_password_secret) #5
  br i1 %call29, label %if.then30, label %if.end35

if.then30:                                        ; preds = %if.end28
  %call32 = call zeroext i1 @visit_type_str(ptr noundef %v, ptr noundef nonnull @.str.347, ptr noundef nonnull %password_secret, ptr noundef %errp) #5
  br i1 %call32, label %if.end35, label %return

if.end35:                                         ; preds = %if.then30, %if.end28
  %call36 = call zeroext i1 @visit_optional(ptr noundef %v, ptr noundef nonnull @.str.348, ptr noundef nonnull %has_initiator_name) #5
  br i1 %call36, label %if.then37, label %if.end42

if.then37:                                        ; preds = %if.end35
  %call39 = call zeroext i1 @visit_type_str(ptr noundef %v, ptr noundef nonnull @.str.348, ptr noundef nonnull %initiator_name, ptr noundef %errp) #5
  br i1 %call39, label %if.end42, label %return

if.end42:                                         ; preds = %if.then37, %if.end35
  %has_header_digest = getelementptr inbounds nuw i8, ptr %obj, i64 64
  %call43 = call zeroext i1 @visit_optional(ptr noundef %v, ptr noundef nonnull @.str.349, ptr noundef nonnull %has_header_digest) #5
  br i1 %call43, label %if.then44, label %if.end48

if.then44:                                        ; preds = %if.end42
  %header_digest = getelementptr inbounds nuw i8, ptr %obj, i64 68
  call void @llvm.lifetime.start.p0(i64 4, ptr nonnull %value.i37)
  %5 = load i32, ptr %header_digest, align 4
  store i32 %5, ptr %value.i37, align 4
  %call.i38 = call zeroext i1 @visit_type_enum(ptr noundef %v, ptr noundef nonnull @.str.349, ptr noundef nonnull %value.i37, ptr noundef nonnull @IscsiHeaderDigest_lookup, ptr noundef %errp) #5
  %6 = load i32, ptr %value.i37, align 4
  store i32 %6, ptr %header_digest, align 4
  call void @llvm.lifetime.end.p0(i64 4, ptr nonnull %value.i37)
  br i1 %call.i38, label %if.end48, label %return

if.end48:                                         ; preds = %if.then44, %if.end42
  %has_timeout = getelementptr inbounds nuw i8, ptr %obj, i64 72
  %call49 = call zeroext i1 @visit_optional(ptr noundef %v, ptr noundef nonnull @.str.350, ptr noundef nonnull %has_timeout) #5
  br i1 %call49, label %if.then50, label %if.end54

if.then50:                                        ; preds = %if.end48
  %timeout = getelementptr inbounds nuw i8, ptr %obj, i64 80
  %call51 = call zeroext i1 @visit_type_int(ptr noundef %v, ptr noundef nonnull @.str.350, ptr noundef nonnull %timeout, ptr noundef %errp) #5
  br i1 %call51, label %if.end54, label %return

if.end54:                                         ; preds = %if.then50, %if.end48
  br label %return

return:                                           ; preds = %if.then50, %if.then44, %if.then37, %if.then30, %if.then23, %if.then17, %if.end12, %if.end, %entry, %if.end54
  %retval.0 = phi i1 [ true, %if.end54 ], [ false, %entry ], [ false, %if.end ], [ false, %if.end12 ], [ false, %if.then17 ], [ false, %if.then23 ], [ false, %if.then30 ], [ false, %if.then37 ], [ false, %if.then44 ], [ false, %if.then50 ]
  ret i1 %retval.0
}